target datalayout = "e-m:e-p270:32:32-p271:32:32-p272:64:64-i64:64-i128:128-f80:128-n8:16:32:64-S128"
target triple = "x86_64-pc-linux-gnu"

%"struct.std::_Vector_base.1" = type { %"struct.std::_Vector_base<std::vector<float>, std::allocator<std::vector<float>>>::_Vector_impl" }
%"struct.std::_Vector_base<std::vector<float>, std::allocator<std::vector<float>>>::_Vector_impl" = type { %"struct.std::_Vector_base<std::vector<float>, std::allocator<std::vector<float>>>::_Vector_impl_data" }
%"struct.std::_Vector_base<std::vector<float>, std::allocator<std::vector<float>>>::_Vector_impl_data" = type { ptr, ptr, ptr }
%"class.std::vector.36" = type { %"struct.std::_Vector_base.37" }
%"struct.std::_Vector_base.37" = type { %"struct.std::_Vector_base<float, std::allocator<float>>::_Vector_impl" }
%"struct.std::_Vector_base<float, std::allocator<float>>::_Vector_impl" = type { %"struct.std::_Vector_base<float, std::allocator<float>>::_Vector_impl_data" }
%"struct.std::_Vector_base<float, std::allocator<float>>::_Vector_impl_data" = type { ptr, ptr, ptr }

@stderr = external global ptr, align 8
@.str.64 = private unnamed_addr constant [2 x i8] c",\00", align 1
@.str.79 = private unnamed_addr constant [2 x i8] c"[\00", align 1
@.str.80 = private unnamed_addr constant [3 x i8] c"%f\00", align 1
@.str.81 = private unnamed_addr constant [2 x i8] c"]\00", align 1

; Function Attrs: mustprogress nounwind uwtable
define linkonce_odr dso_local noundef nonnull align 4 dereferenceable(4) ptr @_ZNKSt6vectorIfSaIfEEixEm(ptr noundef nonnull align 8 dereferenceable(24) %0, i64 noundef %1) #2 comdat align 2 {
  %3 = alloca ptr, align 8
  %4 = alloca i64, align 8
  store ptr %0, ptr %3, align 8, !tbaa !152
  store i64 %1, ptr %4, align 8, !tbaa !149
  %5 = load ptr, ptr %3, align 8
  %6 = getelementptr inbounds nuw %"struct.std::_Vector_base.37", ptr %5, i32 0, i32 0
  %7 = getelementptr inbounds nuw %"struct.std::_Vector_base<float, std::allocator<float>>::_Vector_impl_data", ptr %6, i32 0, i32 0
  %8 = load ptr, ptr %7, align 8, !tbaa !153
  %9 = load i64, ptr %4, align 8, !tbaa !149
  %10 = getelementptr inbounds nuw float, ptr %8, i64 %9
  ret ptr %10
}

; Function Attrs: mustprogress nounwind uwtable
define linkonce_odr dso_local noundef i64 @_ZNKSt6vectorIfSaIfEE4sizeEv(ptr noundef nonnull align 8 dereferenceable(24) %0) #2 comdat align 2 {
  %2 = alloca ptr, align 8
  store ptr %0, ptr %2, align 8, !tbaa !152
  %3 = load ptr, ptr %2, align 8
  %4 = getelementptr inbounds nuw %"struct.std::_Vector_base.37", ptr %3, i32 0, i32 0
  %5 = getelementptr inbounds nuw %"struct.std::_Vector_base<float, std::allocator<float>>::_Vector_impl_data", ptr %4, i32 0, i32 1
  %6 = load ptr, ptr %5, align 8, !tbaa !156
  %7 = getelementptr inbounds nuw %"struct.std::_Vector_base.37", ptr %3, i32 0, i32 0
  %8 = getelementptr inbounds nuw %"struct.std::_Vector_base<float, std::allocator<float>>::_Vector_impl_data", ptr %7, i32 0, i32 0
  %9 = load ptr, ptr %8, align 8, !tbaa !153
  %10 = ptrtoint ptr %6 to i64
  %11 = ptrtoint ptr %9 to i64
  %12 = sub i64 %10, %11
  %13 = sdiv exact i64 %12, 4
  ret i64 %13
}

; Function Attrs: mustprogress nounwind uwtable
define linkonce_odr dso_local noundef nonnull align 8 dereferenceable(24) ptr @_ZNKSt6vectorIS_IfSaIfEESaIS1_EEixEm(ptr noundef nonnull align 8 dereferenceable(24) %0, i64 noundef %1) #2 comdat align 2 {
  %3 = alloca ptr, align 8
  %4 = alloca i64, align 8
  store ptr %0, ptr %3, align 8, !tbaa !56
  store i64 %1, ptr %4, align 8, !tbaa !149
  %5 = load ptr, ptr %3, align 8
  %6 = getelementptr inbounds nuw %"struct.std::_Vector_base.1", ptr %5, i32 0, i32 0
  %7 = getelementptr inbounds nuw %"struct.std::_Vector_base<std::vector<float>, std::allocator<std::vector<float>>>::_Vector_impl_data", ptr %6, i32 0, i32 0
  %8 = load ptr, ptr %7, align 8, !tbaa !73
  %9 = load i64, ptr %4, align 8, !tbaa !149
  %10 = getelementptr inbounds nuw %"class.std::vector.36", ptr %8, i64 %9
  ret ptr %10
}

; Function Attrs: mustprogress nounwind uwtable
define linkonce_odr dso_local noundef i64 @_ZNKSt6vectorIS_IfSaIfEESaIS1_EE4sizeEv(ptr noundef nonnull align 8 dereferenceable(24) %0) #2 comdat align 2 {
  %2 = alloca ptr, align 8
  store ptr %0, ptr %2, align 8, !tbaa !56
  %3 = load ptr, ptr %2, align 8
  %4 = getelementptr inbounds nuw %"struct.std::_Vector_base.1", ptr %3, i32 0, i32 0
  %5 = getelementptr inbounds nuw %"struct.std::_Vector_base<std::vector<float>, std::allocator<std::vector<float>>>::_Vector_impl_data", ptr %4, i32 0, i32 1
  %6 = load ptr, ptr %5, align 8, !tbaa !74
  %7 = getelementptr inbounds nuw %"struct.std::_Vector_base.1", ptr %3, i32 0, i32 0
  %8 = getelementptr inbounds nuw %"struct.std::_Vector_base<std::vector<float>, std::allocator<std::vector<float>>>::_Vector_impl_data", ptr %7, i32 0, i32 0
  %9 = load ptr, ptr %8, align 8, !tbaa !73
  %10 = ptrtoint ptr %6 to i64
  %11 = ptrtoint ptr %9 to i64
  %12 = sub i64 %10, %11
  %13 = sdiv exact i64 %12, 24
  ret i64 %13
}

; Function Attrs: mustprogress nounwind uwtable
define internal void @_ZL22print_float_array_listRKSt6vectorIS_IfSaIfEESaIS1_EE(ptr noundef nonnull align 8 dereferenceable(24) %0) #2 {
  %2 = alloca ptr, align 8
  %3 = alloca i64, align 8
  %4 = alloca i32, align 4
  %5 = alloca ptr, align 8
  %6 = alloca i64, align 8
  store ptr %0, ptr %2, align 8, !tbaa !56
  call void @llvm.lifetime.start.p0(i64 8, ptr %3) #16
  store i64 0, ptr %3, align 8, !tbaa !149
  br label %7

7:                                                ; preds = %57, %1
  %8 = load i64, ptr %3, align 8, !tbaa !149
  %9 = load ptr, ptr %2, align 8, !tbaa !56
  %10 = call noundef i64 @_ZNKSt6vectorIS_IfSaIfEESaIS1_EE4sizeEv(ptr noundef nonnull align 8 dereferenceable(24) %9) #16
  %11 = icmp ult i64 %8, %10
  br i1 %11, label %13, label %12

12:                                               ; preds = %7
  store i32 2, ptr %4, align 4
  call void @llvm.lifetime.end.p0(i64 8, ptr %3) #16
  br label %60

13:                                               ; preds = %7
  call void @llvm.lifetime.start.p0(i64 8, ptr %5) #16
  %14 = load ptr, ptr %2, align 8, !tbaa !56
  %15 = load i64, ptr %3, align 8, !tbaa !149
  %16 = call noundef nonnull align 8 dereferenceable(24) ptr @_ZNKSt6vectorIS_IfSaIfEESaIS1_EEixEm(ptr noundef nonnull align 8 dereferenceable(24) %14, i64 noundef %15) #16
  store ptr %16, ptr %5, align 8, !tbaa !152
  %17 = load ptr, ptr @stderr, align 8, !tbaa !252
  %18 = call i32 (ptr, ptr, ...) @fprintf(ptr noundef %17, ptr noundef @.str.79) #16
  call void @llvm.lifetime.start.p0(i64 8, ptr %6) #16
  store i64 0, ptr %6, align 8, !tbaa !149
  br label %19

19:                                               ; preds = %42, %13
  %20 = load i64, ptr %6, align 8, !tbaa !149
  %21 = load ptr, ptr %5, align 8, !tbaa !152
  %22 = call noundef i64 @_ZNKSt6vectorIfSaIfEE4sizeEv(ptr noundef nonnull align 8 dereferenceable(24) %21) #16
  %23 = icmp ult i64 %20, %22
  br i1 %23, label %25, label %24

24:                                               ; preds = %19
  store i32 5, ptr %4, align 4
  call void @llvm.lifetime.end.p0(i64 8, ptr %6) #16
  br label %45

25:                                               ; preds = %19
  %26 = load ptr, ptr @stderr, align 8, !tbaa !252
  %27 = load ptr, ptr %5, align 8, !tbaa !152
  %28 = load i64, ptr %6, align 8, !tbaa !149
  %29 = call noundef nonnull align 4 dereferenceable(4) ptr @_ZNKSt6vectorIfSaIfEEixEm(ptr noundef nonnull align 8 dereferenceable(24) %27, i64 noundef %28) #16
  %30 = load float, ptr %29, align 4, !tbaa !254
  %31 = fpext float %30 to double
  %32 = call i32 (ptr, ptr, ...) @fprintf(ptr noundef %26, ptr noundef @.str.80, double noundef %31) #16
  %33 = load i64, ptr %6, align 8, !tbaa !149
  %34 = load ptr, ptr %5, align 8, !tbaa !152
  %35 = call noundef i64 @_ZNKSt6vectorIfSaIfEE4sizeEv(ptr noundef nonnull align 8 dereferenceable(24) %34) #16
  %36 = sub i64 %35, 1
  %37 = icmp ne i64 %33, %36
  br i1 %37, label %38, label %41

38:                                               ; preds = %25
  %39 = load ptr, ptr @stderr, align 8, !tbaa !252
  %40 = call i32 (ptr, ptr, ...) @fprintf(ptr noundef %39, ptr noundef @.str.64) #16
  br label %41

41:                                               ; preds = %38, %25
  br label %42

42:                                               ; preds = %41
  %43 = load i64, ptr %6, align 8, !tbaa !149
  %44 = add i64 %43, 1
  store i64 %44, ptr %6, align 8, !tbaa !149
  br label %19, !llvm.loop !480

45:                                               ; preds = %24
  %46 = load ptr, ptr @stderr, align 8, !tbaa !252
  %47 = call i32 (ptr, ptr, ...) @fprintf(ptr noundef %46, ptr noundef @.str.81) #16
  %48 = load i64, ptr %3, align 8, !tbaa !149
  %49 = load ptr, ptr %2, align 8, !tbaa !56
  %50 = call noundef i64 @_ZNKSt6vectorIS_IfSaIfEESaIS1_EE4sizeEv(ptr noundef nonnull align 8 dereferenceable(24) %49) #16
  %51 = sub i64 %50, 1
  %52 = icmp ne i64 %48, %51
  br i1 %52, label %53, label %56

53:                                               ; preds = %45
  %54 = load ptr, ptr @stderr, align 8, !tbaa !252
  %55 = call i32 (ptr, ptr, ...) @fprintf(ptr noundef %54, ptr noundef @.str.64) #16
  br label %56

56:                                               ; preds = %53, %45
  call void @llvm.lifetime.end.p0(i64 8, ptr %5) #16
  br label %57

57:                                               ; preds = %56
  %58 = load i64, ptr %3, align 8, !tbaa !149
  %59 = add i64 %58, 1
  store i64 %59, ptr %3, align 8, !tbaa !149
  br label %7, !llvm.loop !481

60:                                               ; preds = %12
  ret void
}