; Function Attrs: mustprogress nofree norecurse nounwind uwtable
define internal fastcc void @_ZL22print_float_array_listRKSt6vectorIS_IfSaIfEESaIS1_EE(ptr noundef nonnull readonly align 8 captures(none) dereferenceable(24) %0) unnamed_addr #23 {
  %2 = getelementptr inbounds nuw i8, ptr %0, i64 8
  %3 = load ptr, ptr %2, align 8, !tbaa !76
  %4 = load ptr, ptr %0, align 8, !tbaa !75
  %.not23 = icmp eq ptr %3, %4
  br i1 %.not23, label %._crit_edge22, label %.lr.ph21

._crit_edge22:                                    ; preds = %40, %1
  ret void

.lr.ph21:                                         ; preds = %1, %40
  %5 = phi ptr [ %41, %40 ], [ %4, %1 ]
  %.01319 = phi i64 [ %42, %40 ], [ 0, %1 ]
  %6 = getelementptr inbounds nuw %"class.std::vector.36", ptr %5, i64 %.01319
  %7 = load ptr, ptr @stderr, align 8, !tbaa !138
  %fputc = tail call i32 @fputc(i32 91, ptr %7)
  %8 = getelementptr inbounds nuw i8, ptr %6, i64 8
  %9 = load ptr, ptr %8, align 8, !tbaa !125
  %10 = load ptr, ptr %6, align 8, !tbaa !65
  %.not24 = icmp eq ptr %9, %10
  br i1 %.not24, label %._crit_edge, label %.lr.ph

._crit_edge:                                      ; preds = %34, %.lr.ph21
  %11 = load ptr, ptr @stderr, align 8, !tbaa !138
  %fputc14 = tail call i32 @fputc(i32 93, ptr %11)
  %12 = load ptr, ptr %2, align 8, !tbaa !76
  %13 = load ptr, ptr %0, align 8, !tbaa !75
  %14 = ptrtoint ptr %12 to i64
  %15 = ptrtoint ptr %13 to i64
  %16 = sub i64 %14, %15
  %17 = sdiv exact i64 %16, 24
  %18 = add nsw i64 %17, -1
  %.not = icmp eq i64 %.01319, %18
  br i1 %.not, label %40, label %38

.lr.ph:                                           ; preds = %.lr.ph21, %34
  %19 = phi ptr [ %35, %34 ], [ %10, %.lr.ph21 ]
  %.018 = phi i64 [ %36, %34 ], [ 0, %.lr.ph21 ]
  %20 = load ptr, ptr @stderr, align 8, !tbaa !138
  %21 = getelementptr inbounds nuw float, ptr %19, i64 %.018
  %22 = load float, ptr %21, align 4, !tbaa !141
  %23 = fpext float %22 to double
  %24 = tail call i32 (ptr, ptr, ...) @fprintf(ptr noundef %20, ptr noundef nonnull @.str.80, double noundef %23) #36
  %25 = load ptr, ptr %8, align 8, !tbaa !125
  %26 = load ptr, ptr %6, align 8, !tbaa !65
  %27 = ptrtoint ptr %25 to i64
  %28 = ptrtoint ptr %26 to i64
  %29 = sub i64 %27, %28
  %30 = ashr exact i64 %29, 2
  %31 = add nsw i64 %30, -1
  %.not16 = icmp eq i64 %.018, %31
  br i1 %.not16, label %34, label %32

32:                                               ; preds = %.lr.ph
  %33 = load ptr, ptr @stderr, align 8, !tbaa !138
  %fputc17 = tail call i32 @fputc(i32 44, ptr %33)
  %.pre = load ptr, ptr %8, align 8, !tbaa !125
  %.pre25 = load ptr, ptr %6, align 8, !tbaa !65
  %.pre35 = ptrtoint ptr %.pre to i64
  %.pre37 = ptrtoint ptr %.pre25 to i64
  %.pre39 = sub i64 %.pre35, %.pre37
  %.pre41 = ashr exact i64 %.pre39, 2
  br label %34

34:                                               ; preds = %.lr.ph, %32
  %.pre-phi42 = phi i64 [ %30, %.lr.ph ], [ %.pre41, %32 ]
  %35 = phi ptr [ %26, %.lr.ph ], [ %.pre25, %32 ]
  %36 = add nuw i64 %.018, 1
  %37 = icmp ult i64 %36, %.pre-phi42
  br i1 %37, label %.lr.ph, label %._crit_edge, !llvm.loop !360

38:                                               ; preds = %._crit_edge
  %39 = load ptr, ptr @stderr, align 8, !tbaa !138
  %fputc15 = tail call i32 @fputc(i32 44, ptr %39)
  %.pre26 = load ptr, ptr %2, align 8, !tbaa !76
  %.pre27 = load ptr, ptr %0, align 8, !tbaa !75
  %.pre28 = ptrtoint ptr %.pre26 to i64
  %.pre29 = ptrtoint ptr %.pre27 to i64
  %.pre31 = sub i64 %.pre28, %.pre29
  %.pre33 = sdiv exact i64 %.pre31, 24
  br label %40

40:                                               ; preds = %38, %._crit_edge
  %.pre-phi34 = phi i64 [ %.pre33, %38 ], [ %17, %._crit_edge ]
  %41 = phi ptr [ %.pre27, %38 ], [ %13, %._crit_edge ]
  %42 = add nuw i64 %.01319, 1
  %43 = icmp ult i64 %42, %.pre-phi34
  br i1 %43, label %.lr.ph21, label %._crit_edge22, !llvm.loop !361
}